target datalayout = "e-m:e-p270:32:32-p271:32:32-p272:64:64-i64:64-i128:128-f80:128-n8:16:32:64-S128"
target triple = "x86_64-pc-linux-gnu"

%"struct.net::QuicPacketPublicHeader" = type { i64, i32, i8, i8, i8, i8, %"class.std::vector", ptr }
%"class.std::vector" = type { %"struct.std::_Vector_base" }
%"struct.std::_Vector_base" = type { %"struct.std::_Vector_base<net::QuicVersion, std::allocator<net::QuicVersion>>::_Vector_impl" }
%"struct.std::_Vector_base<net::QuicVersion, std::allocator<net::QuicVersion>>::_Vector_impl" = type { %"struct.std::_Vector_base<net::QuicVersion, std::allocator<net::QuicVersion>>::_Vector_impl_data" }
%"struct.std::_Vector_base<net::QuicVersion, std::allocator<net::QuicVersion>>::_Vector_impl_data" = type { ptr, ptr, ptr }
%"struct.net::QuicPublicResetPacket" = type { %"struct.net::QuicPacketPublicHeader", i64, i64, %"class.net::IPEndPoint" }
%"class.net::IPEndPoint" = type <{ %"class.net::IPAddress", i16, [6 x i8] }>
%"class.net::IPAddress" = type { %"class.std::vector.0" }
%"class.std::vector.0" = type { %"struct.std::_Vector_base.1" }
%"struct.std::_Vector_base.1" = type { %"struct.std::_Vector_base<unsigned char, std::allocator<unsigned char>>::_Vector_impl" }
%"struct.std::_Vector_base<unsigned char, std::allocator<unsigned char>>::_Vector_impl" = type { %"struct.std::_Vector_base<unsigned char, std::allocator<unsigned char>>::_Vector_impl_data" }
%"struct.std::_Vector_base<unsigned char, std::allocator<unsigned char>>::_Vector_impl_data" = type { ptr, ptr, ptr }

@_ZN3net22QuicPacketPublicHeaderC1ERKS0_ = unnamed_addr alias void (ptr, ptr), ptr @_ZN3net22QuicPacketPublicHeaderC2ERKS0_
@_ZN3net22QuicPacketPublicHeaderD1Ev = unnamed_addr alias void (ptr), ptr @_ZN3net22QuicPacketPublicHeaderD2Ev

; Function Attrs: mustprogress uwtable
define void @_ZN3net21QuicPublicResetPacketC2ERKNS_22QuicPacketPublicHeaderE(ptr noundef nonnull align 8 dereferenceable(96) %0, ptr noundef nonnull align 8 dereferenceable(48) %1) unnamed_addr #0 align 2 personality ptr @__gxx_personality_v0 {
  %3 = alloca ptr, align 8
  %4 = alloca ptr, align 8
  %5 = alloca ptr, align 8
  %6 = alloca i32, align 4
  store ptr %0, ptr %3, align 8, !tbaa !49
  store ptr %1, ptr %4, align 8, !tbaa !31
  %7 = load ptr, ptr %3, align 8
  %8 = getelementptr inbounds nuw %"struct.net::QuicPublicResetPacket", ptr %7, i32 0, i32 0
  %9 = load ptr, ptr %4, align 8, !tbaa !31
  call void @_ZN3net22QuicPacketPublicHeaderC1ERKS0_(ptr noundef nonnull align 8 dereferenceable(48) %8, ptr noundef nonnull align 8 dereferenceable(48) %9)
  %10 = getelementptr inbounds nuw %"struct.net::QuicPublicResetPacket", ptr %7, i32 0, i32 1
  store i64 0, ptr %10, align 8, !tbaa !51
  %11 = getelementptr inbounds nuw %"struct.net::QuicPublicResetPacket", ptr %7, i32 0, i32 2
  store i64 0, ptr %11, align 8, !tbaa !61
  %12 = getelementptr inbounds nuw %"struct.net::QuicPublicResetPacket", ptr %7, i32 0, i32 3
  invoke void @_ZN3net10IPEndPointC1Ev(ptr noundef nonnull align 8 dereferenceable(26) %12)
          to label %13 unwind label %14

13:                                               ; preds = %2
  ret void

14:                                               ; preds = %2
  %15 = landingpad { ptr, i32 }
          cleanup
  %16 = extractvalue { ptr, i32 } %15, 0
  store ptr %16, ptr %5, align 8
  %17 = extractvalue { ptr, i32 } %15, 1
  store i32 %17, ptr %6, align 4
  call void @_ZN3net22QuicPacketPublicHeaderD1Ev(ptr noundef nonnull align 8 dereferenceable(48) %8) #18
  br label %18

18:                                               ; preds = %14
  %19 = load ptr, ptr %5, align 8
  %20 = load i32, ptr %6, align 4
  %21 = insertvalue { ptr, i32 } poison, ptr %19, 0
  %22 = insertvalue { ptr, i32 } %21, i32 %20, 1
  resume { ptr, i32 } %22
}