; Function Attrs: mustprogress uwtable
define void @_ZN3net21QuicPublicResetPacketC2ERKNS_22QuicPacketPublicHeaderE(ptr noundef nonnull align 8 dereferenceable(96) %0, ptr noundef nonnull align 8 dereferenceable(48) %1) unnamed_addr #3 align 2 personality ptr @__gxx_personality_v0 {
  tail call void @_ZN3net22QuicPacketPublicHeaderC1ERKS0_(ptr noundef nonnull align 8 dereferenceable(48) %0, ptr noundef nonnull align 8 dereferenceable(48) %1)
  %3 = getelementptr inbounds nuw i8, ptr %0, i64 48
  %4 = getelementptr inbounds nuw i8, ptr %0, i64 64
  tail call void @llvm.memset.p0.i64(ptr noundef nonnull align 8 dereferenceable(16) %3, i8 0, i64 16, i1 false)
  invoke void @_ZN3net10IPEndPointC1Ev(ptr noundef nonnull align 8 dereferenceable(26) %4)
          to label %5 unwind label %6

5:                                                ; preds = %2
  ret void

6:                                                ; preds = %2
  %7 = landingpad { ptr, i32 }
          cleanup
  tail call void @_ZN3net22QuicPacketPublicHeaderD1Ev(ptr noundef nonnull align 8 dereferenceable(48) %0) #30
  resume { ptr, i32 } %7
}